target datalayout = "e-m:e-p270:32:32-p271:32:32-p272:64:64-i64:64-i128:128-f80:128-n8:16:32:64-S128"
target triple = "x86_64-pc-linux-gnu"

%struct.FT_ListRec_ = type { ptr, ptr }
%struct.FT_FaceRec_ = type { i64, i64, i64, i64, i64, ptr, ptr, i32, ptr, i32, ptr, %struct.FT_Generic_, %struct.FT_BBox_, i16, i16, i16, i16, i16, i16, i16, i16, ptr, ptr, ptr, ptr, ptr, ptr, %struct.FT_ListRec_, %struct.FT_Generic_, ptr, ptr }
%struct.FT_BBox_ = type { i64, i64, i64, i64 }
%struct.FT_Generic_ = type { ptr, ptr }
%struct.CID_FaceRec_ = type { %struct.FT_FaceRec_, ptr, ptr, %struct.CID_FaceInfoRec_, %struct.PS_FontExtraRec_, ptr, ptr, ptr, ptr }
%struct.CID_FaceInfoRec_ = type { ptr, i64, i32, ptr, ptr, i32, %struct.PS_FontInfoRec_, %struct.FT_BBox_, i64, i32, [16 x i64], i64, i32, i32, i64, i32, ptr, i64 }
%struct.PS_FontInfoRec_ = type { ptr, ptr, ptr, ptr, ptr, i64, i8, i16, i16 }
%struct.PS_FontExtraRec_ = type { i16 }
%struct.CID_FaceDictRec_ = type { %struct.PS_PrivateRec_, i32, i64, i64, i64, i8, i8, %struct.FT_Matrix_, %struct.FT_Vector_, i32, i64, i32 }
%struct.PS_PrivateRec_ = type { i32, i32, i8, i8, i8, i8, [14 x i16], [10 x i16], [14 x i16], [10 x i16], i64, i32, i32, [1 x i16], [1 x i16], i8, i8, i8, i8, [13 x i16], [13 x i16], i64, i64, i64, [2 x i16] }
%struct.FT_Matrix_ = type { i64, i64, i64, i64 }
%struct.FT_Vector_ = type { i64, i64 }
%struct.CID_Parser_ = type { %struct.PS_ParserRec_, ptr, ptr, i64, i64, i64, ptr, i32 }
%struct.PS_ParserRec_ = type { ptr, ptr, ptr, i32, ptr, %struct.PS_Parser_FuncsRec_ }
%struct.PS_Parser_FuncsRec_ = type { ptr, ptr, ptr, ptr, ptr, ptr, ptr, ptr, ptr, ptr, ptr, ptr, ptr }

; Function Attrs: nounwind uwtable
define internal void @cid_parse_font_matrix(ptr noundef %0, ptr noundef %1) #0 {
  %3 = alloca ptr, align 8
  %4 = alloca ptr, align 8
  %5 = alloca ptr, align 8
  %6 = alloca ptr, align 8
  %7 = alloca ptr, align 8
  %8 = alloca [6 x i64], align 16
  %9 = alloca i64, align 8
  %10 = alloca ptr, align 8
  %11 = alloca ptr, align 8
  %12 = alloca i32, align 4
  store ptr %0, ptr %3, align 8
  store ptr %1, ptr %4, align 8
  %13 = load ptr, ptr %3, align 8
  store ptr %13, ptr %5, align 8
  %14 = load ptr, ptr %4, align 8
  store ptr %14, ptr %6, align 8
  %15 = load ptr, ptr %6, align 8
  %16 = getelementptr inbounds %struct.CID_Parser_, ptr %15, i32 0, i32 7
  %17 = load i32, ptr %16, align 8
  %18 = load ptr, ptr %5, align 8
  %19 = getelementptr inbounds %struct.CID_FaceRec_, ptr %18, i32 0, i32 3
  %20 = getelementptr inbounds %struct.CID_FaceInfoRec_, ptr %19, i32 0, i32 15
  %21 = load i32, ptr %20, align 8
  %22 = icmp ult i32 %17, %21
  br i1 %22, label %23, label %147

23:                                               ; preds = %2
  %24 = load ptr, ptr %5, align 8
  %25 = getelementptr inbounds %struct.CID_FaceRec_, ptr %24, i32 0, i32 3
  %26 = getelementptr inbounds %struct.CID_FaceInfoRec_, ptr %25, i32 0, i32 16
  %27 = load ptr, ptr %26, align 8
  %28 = load ptr, ptr %6, align 8
  %29 = getelementptr inbounds %struct.CID_Parser_, ptr %28, i32 0, i32 7
  %30 = load i32, ptr %29, align 8
  %31 = zext i32 %30 to i64
  %32 = getelementptr inbounds %struct.CID_FaceDictRec_, ptr %27, i64 %31
  store ptr %32, ptr %7, align 8
  %33 = load ptr, ptr %7, align 8
  %34 = getelementptr inbounds %struct.CID_FaceDictRec_, ptr %33, i32 0, i32 7
  store ptr %34, ptr %10, align 8
  %35 = load ptr, ptr %7, align 8
  %36 = getelementptr inbounds %struct.CID_FaceDictRec_, ptr %35, i32 0, i32 8
  store ptr %36, ptr %11, align 8
  %37 = load ptr, ptr %6, align 8
  %38 = getelementptr inbounds %struct.CID_Parser_, ptr %37, i32 0, i32 0
  %39 = getelementptr inbounds %struct.PS_ParserRec_, ptr %38, i32 0, i32 5
  %40 = getelementptr inbounds %struct.PS_Parser_FuncsRec_, ptr %39, i32 0, i32 8
  %41 = load ptr, ptr %40, align 8
  %42 = load ptr, ptr %6, align 8
  %43 = getelementptr inbounds %struct.CID_Parser_, ptr %42, i32 0, i32 0
  %44 = getelementptr inbounds [6 x i64], ptr %8, i64 0, i64 0
  %45 = call i32 %41(ptr noundef %43, i32 noundef 6, ptr noundef %44, i32 noundef 3)
  store i32 %45, ptr %12, align 4
  %46 = load i32, ptr %12, align 4
  %47 = icmp slt i32 %46, 6
  br i1 %47, label %48, label %51

48:                                               ; preds = %23
  br label %49

49:                                               ; preds = %48
  br label %50

50:                                               ; preds = %49
  br label %148

51:                                               ; preds = %23
  br label %52

52:                                               ; preds = %51
  br label %53

53:                                               ; preds = %52
  %54 = getelementptr inbounds [6 x i64], ptr %8, i64 0, i64 3
  %55 = load i64, ptr %54, align 8
  %56 = icmp slt i64 %55, 0
  br i1 %56, label %57, label %61

57:                                               ; preds = %53
  %58 = getelementptr inbounds [6 x i64], ptr %8, i64 0, i64 3
  %59 = load i64, ptr %58, align 8
  %60 = sub nsw i64 0, %59
  br label %64

61:                                               ; preds = %53
  %62 = getelementptr inbounds [6 x i64], ptr %8, i64 0, i64 3
  %63 = load i64, ptr %62, align 8
  br label %64

64:                                               ; preds = %61, %57
  %65 = phi i64 [ %60, %57 ], [ %63, %61 ]
  store i64 %65, ptr %9, align 8
  %66 = load i64, ptr %9, align 8
  %67 = icmp eq i64 %66, 0
  br i1 %67, label %68, label %71

68:                                               ; preds = %64
  br label %69

69:                                               ; preds = %68
  br label %70

70:                                               ; preds = %69
  br label %148

71:                                               ; preds = %64
  %72 = load i64, ptr %9, align 8
  %73 = icmp ne i64 %72, 65536
  br i1 %73, label %74, label %110

74:                                               ; preds = %71
  %75 = load i64, ptr %9, align 8
  %76 = call i64 @FT_DivFix(i64 noundef 1000, i64 noundef %75)
  %77 = trunc i64 %76 to i16
  %78 = load ptr, ptr %3, align 8
  %79 = getelementptr inbounds %struct.FT_FaceRec_, ptr %78, i32 0, i32 13
  store i16 %77, ptr %79, align 8
  %80 = getelementptr inbounds [6 x i64], ptr %8, i64 0, i64 0
  %81 = load i64, ptr %80, align 16
  %82 = load i64, ptr %9, align 8
  %83 = call i64 @FT_DivFix(i64 noundef %81, i64 noundef %82)
  %84 = getelementptr inbounds [6 x i64], ptr %8, i64 0, i64 0
  store i64 %83, ptr %84, align 16
  %85 = getelementptr inbounds [6 x i64], ptr %8, i64 0, i64 1
  %86 = load i64, ptr %85, align 8
  %87 = load i64, ptr %9, align 8
  %88 = call i64 @FT_DivFix(i64 noundef %86, i64 noundef %87)
  %89 = getelementptr inbounds [6 x i64], ptr %8, i64 0, i64 1
  store i64 %88, ptr %89, align 8
  %90 = getelementptr inbounds [6 x i64], ptr %8, i64 0, i64 2
  %91 = load i64, ptr %90, align 16
  %92 = load i64, ptr %9, align 8
  %93 = call i64 @FT_DivFix(i64 noundef %91, i64 noundef %92)
  %94 = getelementptr inbounds [6 x i64], ptr %8, i64 0, i64 2
  store i64 %93, ptr %94, align 16
  %95 = getelementptr inbounds [6 x i64], ptr %8, i64 0, i64 4
  %96 = load i64, ptr %95, align 16
  %97 = load i64, ptr %9, align 8
  %98 = call i64 @FT_DivFix(i64 noundef %96, i64 noundef %97)
  %99 = getelementptr inbounds [6 x i64], ptr %8, i64 0, i64 4
  store i64 %98, ptr %99, align 16
  %100 = getelementptr inbounds [6 x i64], ptr %8, i64 0, i64 5
  %101 = load i64, ptr %100, align 8
  %102 = load i64, ptr %9, align 8
  %103 = call i64 @FT_DivFix(i64 noundef %101, i64 noundef %102)
  %104 = getelementptr inbounds [6 x i64], ptr %8, i64 0, i64 5
  store i64 %103, ptr %104, align 8
  %105 = getelementptr inbounds [6 x i64], ptr %8, i64 0, i64 3
  %106 = load i64, ptr %105, align 8
  %107 = icmp slt i64 %106, 0
  %108 = select i1 %107, i64 -65536, i64 65536
  %109 = getelementptr inbounds [6 x i64], ptr %8, i64 0, i64 3
  store i64 %108, ptr %109, align 8
  br label %110

110:                                              ; preds = %74, %71
  %111 = getelementptr inbounds [6 x i64], ptr %8, i64 0, i64 0
  %112 = load i64, ptr %111, align 16
  %113 = load ptr, ptr %10, align 8
  %114 = getelementptr inbounds %struct.FT_Matrix_, ptr %113, i32 0, i32 0
  store i64 %112, ptr %114, align 8
  %115 = getelementptr inbounds [6 x i64], ptr %8, i64 0, i64 1
  %116 = load i64, ptr %115, align 8
  %117 = load ptr, ptr %10, align 8
  %118 = getelementptr inbounds %struct.FT_Matrix_, ptr %117, i32 0, i32 2
  store i64 %116, ptr %118, align 8
  %119 = getelementptr inbounds [6 x i64], ptr %8, i64 0, i64 2
  %120 = load i64, ptr %119, align 16
  %121 = load ptr, ptr %10, align 8
  %122 = getelementptr inbounds %struct.FT_Matrix_, ptr %121, i32 0, i32 1
  store i64 %120, ptr %122, align 8
  %123 = getelementptr inbounds [6 x i64], ptr %8, i64 0, i64 3
  %124 = load i64, ptr %123, align 8
  %125 = load ptr, ptr %10, align 8
  %126 = getelementptr inbounds %struct.FT_Matrix_, ptr %125, i32 0, i32 3
  store i64 %124, ptr %126, align 8
  %127 = load ptr, ptr %10, align 8
  %128 = call zeroext i8 @FT_Matrix_Check(ptr noundef %127)
  %129 = icmp ne i8 %128, 0
  br i1 %129, label %136, label %130

130:                                              ; preds = %110
  br label %131

131:                                              ; preds = %130
  br label %132

132:                                              ; preds = %131
  %133 = load ptr, ptr %6, align 8
  %134 = getelementptr inbounds %struct.CID_Parser_, ptr %133, i32 0, i32 0
  %135 = getelementptr inbounds %struct.PS_ParserRec_, ptr %134, i32 0, i32 3
  store i32 3, ptr %135, align 8
  br label %148

136:                                              ; preds = %110
  %137 = getelementptr inbounds [6 x i64], ptr %8, i64 0, i64 4
  %138 = load i64, ptr %137, align 16
  %139 = ashr i64 %138, 16
  %140 = load ptr, ptr %11, align 8
  %141 = getelementptr inbounds %struct.FT_Vector_, ptr %140, i32 0, i32 0
  store i64 %139, ptr %141, align 8
  %142 = getelementptr inbounds [6 x i64], ptr %8, i64 0, i64 5
  %143 = load i64, ptr %142, align 8
  %144 = ashr i64 %143, 16
  %145 = load ptr, ptr %11, align 8
  %146 = getelementptr inbounds %struct.FT_Vector_, ptr %145, i32 0, i32 1
  store i64 %144, ptr %146, align 8
  br label %147

147:                                              ; preds = %136, %2
  br label %148

148:                                              ; preds = %147, %132, %70, %50
  ret void
}