; Function Attrs: nounwind uwtable
define internal void @cid_parse_font_matrix(ptr noundef captures(none) %0, ptr noundef %1) #2 {
  %3 = alloca [6 x i64], align 16
  %4 = getelementptr inbounds nuw i8, ptr %1, i64 192
  %5 = load i32, ptr %4, align 8
  %6 = getelementptr inbounds nuw i8, ptr %0, i64 568
  %7 = load i32, ptr %6, align 8
  %8 = icmp ult i32 %5, %7
  br i1 %8, label %9, label %68

9:                                                ; preds = %2
  %10 = getelementptr inbounds nuw i8, ptr %0, i64 576
  %11 = load ptr, ptr %10, align 8
  %12 = zext i32 %5 to i64
  %13 = getelementptr inbounds nuw %struct.CID_FaceDictRec_, ptr %11, i64 %12
  %14 = getelementptr inbounds nuw i8, ptr %13, i64 264
  %15 = getelementptr inbounds nuw i8, ptr %13, i64 296
  %16 = getelementptr inbounds nuw i8, ptr %1, i64 104
  %17 = load ptr, ptr %16, align 8
  %18 = call i32 %17(ptr noundef nonnull %1, i32 noundef 6, ptr noundef nonnull %3, i32 noundef 3) #13
  %19 = icmp slt i32 %18, 6
  br i1 %19, label %68, label %20

20:                                               ; preds = %9
  %21 = getelementptr inbounds nuw i8, ptr %3, i64 24
  %22 = load i64, ptr %21, align 8
  %23 = call i64 @llvm.abs.i64(i64 %22, i1 true)
  %24 = icmp eq i64 %22, 0
  br i1 %24, label %68, label %25

25:                                               ; preds = %20
  %.not = icmp eq i64 %23, 65536
  br i1 %.not, label %47, label %26

26:                                               ; preds = %25
  %27 = call i64 @FT_DivFix(i64 noundef 1000, i64 noundef %23) #13
  %28 = trunc i64 %27 to i16
  %29 = getelementptr inbounds nuw i8, ptr %0, i64 136
  store i16 %28, ptr %29, align 8
  %30 = load i64, ptr %3, align 16
  %31 = call i64 @FT_DivFix(i64 noundef %30, i64 noundef %23) #13
  store i64 %31, ptr %3, align 16
  %32 = getelementptr inbounds nuw i8, ptr %3, i64 8
  %33 = load i64, ptr %32, align 8
  %34 = call i64 @FT_DivFix(i64 noundef %33, i64 noundef %23) #13
  store i64 %34, ptr %32, align 8
  %35 = getelementptr inbounds nuw i8, ptr %3, i64 16
  %36 = load i64, ptr %35, align 16
  %37 = call i64 @FT_DivFix(i64 noundef %36, i64 noundef %23) #13
  store i64 %37, ptr %35, align 16
  %38 = getelementptr inbounds nuw i8, ptr %3, i64 32
  %39 = load i64, ptr %38, align 16
  %40 = call i64 @FT_DivFix(i64 noundef %39, i64 noundef %23) #13
  store i64 %40, ptr %38, align 16
  %41 = getelementptr inbounds nuw i8, ptr %3, i64 40
  %42 = load i64, ptr %41, align 8
  %43 = call i64 @FT_DivFix(i64 noundef %42, i64 noundef %23) #13
  store i64 %43, ptr %41, align 8
  %44 = load i64, ptr %21, align 8
  %45 = icmp slt i64 %44, 0
  %46 = select i1 %45, i64 -65536, i64 65536
  store i64 %46, ptr %21, align 8
  br label %47

47:                                               ; preds = %26, %25
  %48 = phi i64 [ %46, %26 ], [ %22, %25 ]
  %49 = load i64, ptr %3, align 16
  store i64 %49, ptr %14, align 8
  %50 = getelementptr inbounds nuw i8, ptr %3, i64 8
  %51 = load i64, ptr %50, align 8
  %52 = getelementptr inbounds nuw i8, ptr %13, i64 280
  store i64 %51, ptr %52, align 8
  %53 = getelementptr inbounds nuw i8, ptr %3, i64 16
  %54 = load i64, ptr %53, align 16
  %55 = getelementptr inbounds nuw i8, ptr %13, i64 272
  store i64 %54, ptr %55, align 8
  %56 = getelementptr inbounds nuw i8, ptr %13, i64 288
  store i64 %48, ptr %56, align 8
  %57 = call zeroext i8 @FT_Matrix_Check(ptr noundef nonnull %14) #13
  %.not28 = icmp eq i8 %57, 0
  br i1 %.not28, label %58, label %60

58:                                               ; preds = %47
  %59 = getelementptr inbounds nuw i8, ptr %1, i64 24
  store i32 3, ptr %59, align 8
  br label %68

60:                                               ; preds = %47
  %61 = getelementptr inbounds nuw i8, ptr %3, i64 32
  %62 = load i64, ptr %61, align 16
  %63 = ashr i64 %62, 16
  store i64 %63, ptr %15, align 8
  %64 = getelementptr inbounds nuw i8, ptr %3, i64 40
  %65 = load i64, ptr %64, align 8
  %66 = ashr i64 %65, 16
  %67 = getelementptr inbounds nuw i8, ptr %13, i64 304
  store i64 %66, ptr %67, align 8
  br label %68

68:                                               ; preds = %2, %60, %20, %9, %58
  ret void
}